target datalayout = "e-m:e-p270:32:32-p271:32:32-p272:64:64-i64:64-i128:128-f80:128-n8:16:32:64-S128"
target triple = "x86_64-pc-linux-gnu"

%struct.opj_jp2 = type { ptr, ptr, ptr, i32, i32, i32, i32, i32, i32, i32, i32, i32, i32, i32, i32, i32, i32, ptr, ptr, i64, i64, i32, i32, i32, %struct.opj_jp2_color, i32, i8, i8 }
%struct.opj_jp2_color = type { ptr, i32, ptr, ptr, i8 }

; Function Attrs: nounwind uwtable
define internal i32 @opj_jp2_setup_header_writing(ptr noundef %0, ptr noundef %1) #0 {
  %3 = alloca i32, align 4
  %4 = alloca ptr, align 8
  %5 = alloca ptr, align 8
  store ptr %0, ptr %4, align 8, !tbaa !3
  store ptr %1, ptr %5, align 8, !tbaa !12
  %6 = load ptr, ptr %4, align 8, !tbaa !3
  %7 = getelementptr inbounds nuw %struct.opj_jp2, ptr %6, i32 0, i32 2
  %8 = load ptr, ptr %7, align 8, !tbaa !91
  %9 = load ptr, ptr %5, align 8, !tbaa !12
  %10 = call i32 @opj_procedure_list_add_procedure(ptr noundef %8, ptr noundef @opj_jp2_write_jp, ptr noundef %9)
  %11 = icmp ne i32 %10, 0
  br i1 %11, label %13, label %12

12:                                               ; preds = %2
  store i32 0, ptr %3, align 4
  br label %52

13:                                               ; preds = %2
  %14 = load ptr, ptr %4, align 8, !tbaa !3
  %15 = getelementptr inbounds nuw %struct.opj_jp2, ptr %14, i32 0, i32 2
  %16 = load ptr, ptr %15, align 8, !tbaa !91
  %17 = load ptr, ptr %5, align 8, !tbaa !12
  %18 = call i32 @opj_procedure_list_add_procedure(ptr noundef %16, ptr noundef @opj_jp2_write_ftyp, ptr noundef %17)
  %19 = icmp ne i32 %18, 0
  br i1 %19, label %21, label %20

20:                                               ; preds = %13
  store i32 0, ptr %3, align 4
  br label %52

21:                                               ; preds = %13
  %22 = load ptr, ptr %4, align 8, !tbaa !3
  %23 = getelementptr inbounds nuw %struct.opj_jp2, ptr %22, i32 0, i32 2
  %24 = load ptr, ptr %23, align 8, !tbaa !91
  %25 = load ptr, ptr %5, align 8, !tbaa !12
  %26 = call i32 @opj_procedure_list_add_procedure(ptr noundef %24, ptr noundef @opj_jp2_write_jp2h, ptr noundef %25)
  %27 = icmp ne i32 %26, 0
  br i1 %27, label %29, label %28

28:                                               ; preds = %21
  store i32 0, ptr %3, align 4
  br label %52

29:                                               ; preds = %21
  %30 = load ptr, ptr %4, align 8, !tbaa !3
  %31 = getelementptr inbounds nuw %struct.opj_jp2, ptr %30, i32 0, i32 21
  %32 = load i32, ptr %31, align 8, !tbaa !90
  %33 = icmp ne i32 %32, 0
  br i1 %33, label %34, label %43

34:                                               ; preds = %29
  %35 = load ptr, ptr %4, align 8, !tbaa !3
  %36 = getelementptr inbounds nuw %struct.opj_jp2, ptr %35, i32 0, i32 2
  %37 = load ptr, ptr %36, align 8, !tbaa !91
  %38 = load ptr, ptr %5, align 8, !tbaa !12
  %39 = call i32 @opj_procedure_list_add_procedure(ptr noundef %37, ptr noundef @opj_jpip_skip_iptr, ptr noundef %38)
  %40 = icmp ne i32 %39, 0
  br i1 %40, label %42, label %41

41:                                               ; preds = %34
  store i32 0, ptr %3, align 4
  br label %52

42:                                               ; preds = %34
  br label %43

43:                                               ; preds = %42, %29
  %44 = load ptr, ptr %4, align 8, !tbaa !3
  %45 = getelementptr inbounds nuw %struct.opj_jp2, ptr %44, i32 0, i32 2
  %46 = load ptr, ptr %45, align 8, !tbaa !91
  %47 = load ptr, ptr %5, align 8, !tbaa !12
  %48 = call i32 @opj_procedure_list_add_procedure(ptr noundef %46, ptr noundef @opj_jp2_skip_jp2c, ptr noundef %47)
  %49 = icmp ne i32 %48, 0
  br i1 %49, label %51, label %50

50:                                               ; preds = %43
  store i32 0, ptr %3, align 4
  br label %52

51:                                               ; preds = %43
  store i32 1, ptr %3, align 4
  br label %52

52:                                               ; preds = %51, %50, %41, %28, %20, %12
  %53 = load i32, ptr %3, align 4
  ret i32 %53
}

; Function Attrs: nounwind uwtable
define internal i32 @opj_jp2_exec(ptr noundef %0, ptr noundef %1, ptr noundef %2, ptr noundef %3) #0 {
  %5 = alloca ptr, align 8
  %6 = alloca ptr, align 8
  %7 = alloca ptr, align 8
  %8 = alloca ptr, align 8
  %9 = alloca ptr, align 8
  %10 = alloca i32, align 4
  %11 = alloca i32, align 4
  %12 = alloca i32, align 4
  store ptr %0, ptr %5, align 8, !tbaa !3
  store ptr %1, ptr %6, align 8, !tbaa !92
  store ptr %2, ptr %7, align 8, !tbaa !8
  store ptr %3, ptr %8, align 8, !tbaa !12
  call void @llvm.lifetime.start.p0(i64 8, ptr %9) #5
  store ptr null, ptr %9, align 8, !tbaa !93
  call void @llvm.lifetime.start.p0(i64 4, ptr %10) #5
  store i32 1, ptr %10, align 4, !tbaa !39
  call void @llvm.lifetime.start.p0(i64 4, ptr %11) #5
  call void @llvm.lifetime.start.p0(i64 4, ptr %12) #5
  %13 = load ptr, ptr %6, align 8, !tbaa !92
  %14 = call i32 @opj_procedure_list_get_nb_procedures(ptr noundef %13)
  store i32 %14, ptr %11, align 4, !tbaa !39
  %15 = load ptr, ptr %6, align 8, !tbaa !92
  %16 = call ptr @opj_procedure_list_get_first_procedure(ptr noundef %15)
  store ptr %16, ptr %9, align 8, !tbaa !93
  store i32 0, ptr %12, align 4, !tbaa !39
  br label %17

17:                                               ; preds = %37, %4
  %18 = load i32, ptr %12, align 4, !tbaa !39
  %19 = load i32, ptr %11, align 4, !tbaa !39
  %20 = icmp ult i32 %18, %19
  br i1 %20, label %21, label %40

21:                                               ; preds = %17
  %22 = load i32, ptr %10, align 4, !tbaa !39
  %23 = icmp ne i32 %22, 0
  br i1 %23, label %24, label %32

24:                                               ; preds = %21
  %25 = load ptr, ptr %9, align 8, !tbaa !93
  %26 = load ptr, ptr %25, align 8, !tbaa !95
  %27 = load ptr, ptr %5, align 8, !tbaa !3
  %28 = load ptr, ptr %7, align 8, !tbaa !8
  %29 = load ptr, ptr %8, align 8, !tbaa !12
  %30 = call i32 %26(ptr noundef %27, ptr noundef %28, ptr noundef %29)
  %31 = icmp ne i32 %30, 0
  br label %32

32:                                               ; preds = %24, %21
  %33 = phi i1 [ false, %21 ], [ %31, %24 ]
  %34 = zext i1 %33 to i32
  store i32 %34, ptr %10, align 4, !tbaa !39
  %35 = load ptr, ptr %9, align 8, !tbaa !93
  %36 = getelementptr inbounds nuw ptr, ptr %35, i32 1
  store ptr %36, ptr %9, align 8, !tbaa !93
  br label %37

37:                                               ; preds = %32
  %38 = load i32, ptr %12, align 4, !tbaa !39
  %39 = add i32 %38, 1
  store i32 %39, ptr %12, align 4, !tbaa !39
  br label %17, !llvm.loop !96

40:                                               ; preds = %17
  %41 = load ptr, ptr %6, align 8, !tbaa !92
  call void @opj_procedure_list_clear(ptr noundef %41)
  %42 = load i32, ptr %10, align 4, !tbaa !39
  call void @llvm.lifetime.end.p0(i64 4, ptr %12) #5
  call void @llvm.lifetime.end.p0(i64 4, ptr %11) #5
  call void @llvm.lifetime.end.p0(i64 4, ptr %10) #5
  call void @llvm.lifetime.end.p0(i64 8, ptr %9) #5
  ret i32 %42
}

; Function Attrs: nounwind uwtable
define internal i32 @opj_jp2_setup_encoding_validation(ptr noundef %0, ptr noundef %1) #0 {
  %3 = alloca i32, align 4
  %4 = alloca ptr, align 8
  %5 = alloca ptr, align 8
  store ptr %0, ptr %4, align 8, !tbaa !3
  store ptr %1, ptr %5, align 8, !tbaa !12
  %6 = load ptr, ptr %4, align 8, !tbaa !3
  %7 = getelementptr inbounds nuw %struct.opj_jp2, ptr %6, i32 0, i32 1
  %8 = load ptr, ptr %7, align 8, !tbaa !97
  %9 = load ptr, ptr %5, align 8, !tbaa !12
  %10 = call i32 @opj_procedure_list_add_procedure(ptr noundef %8, ptr noundef @opj_jp2_default_validation, ptr noundef %9)
  %11 = icmp ne i32 %10, 0
  br i1 %11, label %13, label %12

12:                                               ; preds = %2
  store i32 0, ptr %3, align 4
  br label %14

13:                                               ; preds = %2
  store i32 1, ptr %3, align 4
  br label %14

14:                                               ; preds = %13, %12
  %15 = load i32, ptr %3, align 4
  ret i32 %15
}

; Function Attrs: nounwind uwtable
define hidden i32 @opj_jp2_start_compress(ptr noundef %0, ptr noundef %1, ptr noundef %2, ptr noundef %3) #0 {
  %5 = alloca i32, align 4
  %6 = alloca ptr, align 8
  %7 = alloca ptr, align 8
  %8 = alloca ptr, align 8
  %9 = alloca ptr, align 8
  store ptr %0, ptr %6, align 8, !tbaa !3
  store ptr %1, ptr %7, align 8, !tbaa !8
  store ptr %2, ptr %8, align 8, !tbaa !10
  store ptr %3, ptr %9, align 8, !tbaa !12
  %10 = load ptr, ptr %6, align 8, !tbaa !3
  %11 = load ptr, ptr %9, align 8, !tbaa !12
  %12 = call i32 @opj_jp2_setup_encoding_validation(ptr noundef %10, ptr noundef %11)
  %13 = icmp ne i32 %12, 0
  br i1 %13, label %15, label %14

14:                                               ; preds = %4
  store i32 0, ptr %5, align 4
  br label %49

15:                                               ; preds = %4
  %16 = load ptr, ptr %6, align 8, !tbaa !3
  %17 = load ptr, ptr %6, align 8, !tbaa !3
  %18 = getelementptr inbounds nuw %struct.opj_jp2, ptr %17, i32 0, i32 1
  %19 = load ptr, ptr %18, align 8, !tbaa !97
  %20 = load ptr, ptr %7, align 8, !tbaa !8
  %21 = load ptr, ptr %9, align 8, !tbaa !12
  %22 = call i32 @opj_jp2_exec(ptr noundef %16, ptr noundef %19, ptr noundef %20, ptr noundef %21)
  %23 = icmp ne i32 %22, 0
  br i1 %23, label %25, label %24

24:                                               ; preds = %15
  store i32 0, ptr %5, align 4
  br label %49

25:                                               ; preds = %15
  %26 = load ptr, ptr %6, align 8, !tbaa !3
  %27 = load ptr, ptr %9, align 8, !tbaa !12
  %28 = call i32 @opj_jp2_setup_header_writing(ptr noundef %26, ptr noundef %27)
  %29 = icmp ne i32 %28, 0
  br i1 %29, label %31, label %30

30:                                               ; preds = %25
  store i32 0, ptr %5, align 4
  br label %49

31:                                               ; preds = %25
  %32 = load ptr, ptr %6, align 8, !tbaa !3
  %33 = load ptr, ptr %6, align 8, !tbaa !3
  %34 = getelementptr inbounds nuw %struct.opj_jp2, ptr %33, i32 0, i32 2
  %35 = load ptr, ptr %34, align 8, !tbaa !91
  %36 = load ptr, ptr %7, align 8, !tbaa !8
  %37 = load ptr, ptr %9, align 8, !tbaa !12
  %38 = call i32 @opj_jp2_exec(ptr noundef %32, ptr noundef %35, ptr noundef %36, ptr noundef %37)
  %39 = icmp ne i32 %38, 0
  br i1 %39, label %41, label %40

40:                                               ; preds = %31
  store i32 0, ptr %5, align 4
  br label %49

41:                                               ; preds = %31
  %42 = load ptr, ptr %6, align 8, !tbaa !3
  %43 = getelementptr inbounds nuw %struct.opj_jp2, ptr %42, i32 0, i32 0
  %44 = load ptr, ptr %43, align 8, !tbaa !14
  %45 = load ptr, ptr %7, align 8, !tbaa !8
  %46 = load ptr, ptr %8, align 8, !tbaa !10
  %47 = load ptr, ptr %9, align 8, !tbaa !12
  %48 = call i32 @opj_j2k_start_compress(ptr noundef %44, ptr noundef %45, ptr noundef %46, ptr noundef %47)
  store i32 %48, ptr %5, align 4
  br label %49

49:                                               ; preds = %41, %40, %30, %24, %14
  %50 = load i32, ptr %5, align 4
  ret i32 %50
}