; Function Attrs: nounwind uwtable
define hidden i32 @opj_jp2_start_compress(ptr noundef %0, ptr noundef %1, ptr noundef %2, ptr noundef %3) local_unnamed_addr #0 {
  %5 = getelementptr i8, ptr %0, i64 8
  %.val = load ptr, ptr %5, align 8, !tbaa !113
  %6 = tail call i32 @opj_procedure_list_add_procedure(ptr noundef %.val, ptr noundef nonnull @opj_jp2_default_validation, ptr noundef %3) #6
  %.not.i.not = icmp eq i32 %6, 0
  br i1 %.not.i.not, label %opj_jp2_setup_header_writing.exit.thread, label %7

7:                                                ; preds = %4
  %8 = load ptr, ptr %5, align 8, !tbaa !113
  %9 = tail call i32 @opj_procedure_list_get_nb_procedures(ptr noundef %8) #6
  %10 = tail call ptr @opj_procedure_list_get_first_procedure(ptr noundef %8) #6
  %.not17.i = icmp eq i32 %9, 0
  br i1 %.not17.i, label %opj_jp2_exec.exit.thread, label %.lr.ph.i

opj_jp2_exec.exit.thread:                         ; preds = %7
  tail call void @opj_procedure_list_clear(ptr noundef %8) #6
  br label %20

.lr.ph.i:                                         ; preds = %7, %16
  %.016.i = phi i32 [ %19, %16 ], [ 0, %7 ]
  %.01215.i = phi ptr [ %18, %16 ], [ %10, %7 ]
  %.01314.i = phi i32 [ %17, %16 ], [ 1, %7 ]
  %.not.i19 = icmp eq i32 %.01314.i, 0
  br i1 %.not.i19, label %16, label %11

11:                                               ; preds = %.lr.ph.i
  %12 = load ptr, ptr %.01215.i, align 8, !tbaa !111
  %13 = tail call i32 %12(ptr noundef %0, ptr noundef %1, ptr noundef %3) #6
  %14 = icmp ne i32 %13, 0
  %15 = zext i1 %14 to i32
  br label %16

16:                                               ; preds = %11, %.lr.ph.i
  %17 = phi i32 [ 0, %.lr.ph.i ], [ %15, %11 ]
  %18 = getelementptr inbounds nuw i8, ptr %.01215.i, i64 8
  %19 = add nuw i32 %.016.i, 1
  %exitcond.not.i = icmp eq i32 %19, %9
  br i1 %exitcond.not.i, label %opj_jp2_exec.exit, label %.lr.ph.i, !llvm.loop !112

opj_jp2_exec.exit:                                ; preds = %16
  tail call void @opj_procedure_list_clear(ptr noundef %8) #6
  %.not16 = icmp eq i32 %17, 0
  br i1 %.not16, label %opj_jp2_setup_header_writing.exit.thread, label %20

20:                                               ; preds = %opj_jp2_exec.exit.thread, %opj_jp2_exec.exit
  %21 = getelementptr inbounds nuw i8, ptr %0, i64 16
  %22 = load ptr, ptr %21, align 8, !tbaa !110
  %23 = tail call i32 @opj_procedure_list_add_procedure(ptr noundef %22, ptr noundef nonnull @opj_jp2_write_jp, ptr noundef %3) #6
  %.not.i20 = icmp eq i32 %23, 0
  br i1 %.not.i20, label %opj_jp2_setup_header_writing.exit.thread, label %24

24:                                               ; preds = %20
  %25 = load ptr, ptr %21, align 8, !tbaa !110
  %26 = tail call i32 @opj_procedure_list_add_procedure(ptr noundef %25, ptr noundef nonnull @opj_jp2_write_ftyp, ptr noundef %3) #6
  %.not11.i = icmp eq i32 %26, 0
  br i1 %.not11.i, label %opj_jp2_setup_header_writing.exit.thread, label %27

27:                                               ; preds = %24
  %28 = load ptr, ptr %21, align 8, !tbaa !110
  %29 = tail call i32 @opj_procedure_list_add_procedure(ptr noundef %28, ptr noundef nonnull @opj_jp2_write_jp2h, ptr noundef %3) #6
  %.not12.i = icmp eq i32 %29, 0
  br i1 %.not12.i, label %opj_jp2_setup_header_writing.exit.thread, label %30

30:                                               ; preds = %27
  %31 = getelementptr inbounds nuw i8, ptr %0, i64 112
  %32 = load i32, ptr %31, align 8, !tbaa !109
  %.not13.i = icmp eq i32 %32, 0
  br i1 %.not13.i, label %opj_jp2_setup_header_writing.exit, label %33

33:                                               ; preds = %30
  %34 = load ptr, ptr %21, align 8, !tbaa !110
  %35 = tail call i32 @opj_procedure_list_add_procedure(ptr noundef %34, ptr noundef nonnull @opj_jpip_skip_iptr, ptr noundef %3) #6
  %.not14.i = icmp eq i32 %35, 0
  br i1 %.not14.i, label %opj_jp2_setup_header_writing.exit.thread, label %opj_jp2_setup_header_writing.exit

opj_jp2_setup_header_writing.exit:                ; preds = %30, %33
  %36 = load ptr, ptr %21, align 8, !tbaa !110
  %37 = tail call i32 @opj_procedure_list_add_procedure(ptr noundef %36, ptr noundef nonnull @opj_jp2_skip_jp2c, ptr noundef %3) #6
  %.not15.i.not = icmp eq i32 %37, 0
  br i1 %.not15.i.not, label %opj_jp2_setup_header_writing.exit.thread, label %38

38:                                               ; preds = %opj_jp2_setup_header_writing.exit
  %39 = load ptr, ptr %21, align 8, !tbaa !110
  %40 = tail call i32 @opj_procedure_list_get_nb_procedures(ptr noundef %39) #6
  %41 = tail call ptr @opj_procedure_list_get_first_procedure(ptr noundef %39) #6
  %.not17.i22 = icmp eq i32 %40, 0
  br i1 %.not17.i22, label %opj_jp2_exec.exit30.thread, label %.lr.ph.i23

opj_jp2_exec.exit30.thread:                       ; preds = %38
  tail call void @opj_procedure_list_clear(ptr noundef %39) #6
  br label %51

.lr.ph.i23:                                       ; preds = %38, %47
  %.016.i24 = phi i32 [ %50, %47 ], [ 0, %38 ]
  %.01215.i25 = phi ptr [ %49, %47 ], [ %41, %38 ]
  %.01314.i26 = phi i32 [ %48, %47 ], [ 1, %38 ]
  %.not.i27 = icmp eq i32 %.01314.i26, 0
  br i1 %.not.i27, label %47, label %42

42:                                               ; preds = %.lr.ph.i23
  %43 = load ptr, ptr %.01215.i25, align 8, !tbaa !111
  %44 = tail call i32 %43(ptr noundef %0, ptr noundef %1, ptr noundef %3) #6
  %45 = icmp ne i32 %44, 0
  %46 = zext i1 %45 to i32
  br label %47

47:                                               ; preds = %42, %.lr.ph.i23
  %48 = phi i32 [ 0, %.lr.ph.i23 ], [ %46, %42 ]
  %49 = getelementptr inbounds nuw i8, ptr %.01215.i25, i64 8
  %50 = add nuw i32 %.016.i24, 1
  %exitcond.not.i28 = icmp eq i32 %50, %40
  br i1 %exitcond.not.i28, label %opj_jp2_exec.exit30, label %.lr.ph.i23, !llvm.loop !112

opj_jp2_exec.exit30:                              ; preds = %47
  tail call void @opj_procedure_list_clear(ptr noundef %39) #6
  %.not18 = icmp eq i32 %48, 0
  br i1 %.not18, label %opj_jp2_setup_header_writing.exit.thread, label %51

51:                                               ; preds = %opj_jp2_exec.exit30.thread, %opj_jp2_exec.exit30
  %52 = load ptr, ptr %0, align 8, !tbaa !3
  %53 = tail call i32 @opj_j2k_start_compress(ptr noundef %52, ptr noundef %1, ptr noundef %2, ptr noundef %3) #6
  br label %opj_jp2_setup_header_writing.exit.thread

opj_jp2_setup_header_writing.exit.thread:         ; preds = %33, %27, %24, %20, %opj_jp2_exec.exit30, %opj_jp2_setup_header_writing.exit, %opj_jp2_exec.exit, %4, %51
  %.0 = phi i32 [ %53, %51 ], [ 0, %4 ], [ 0, %opj_jp2_exec.exit ], [ 0, %opj_jp2_setup_header_writing.exit ], [ 0, %opj_jp2_exec.exit30 ], [ 0, %20 ], [ 0, %24 ], [ 0, %27 ], [ 0, %33 ]
  ret i32 %.0
}